target datalayout = "e-m:e-p270:32:32-p271:32:32-p272:64:64-i64:64-i128:128-f80:128-n8:16:32:64-S128"
target triple = "x86_64-pc-linux-gnu"

@_ZN17CompilationPolicy9_c1_countE = hidden global i32 0, align 4
@_ZN17CompilationPolicy9_c2_countE = hidden global i32 0, align 4

; Function Attrs: mustprogress nounwind uwtable
define linkonce_odr hidden noundef i32 @_ZN17CompilationPolicy8c2_countEv() #1 comdat align 2 {
  %1 = load i32, ptr @_ZN17CompilationPolicy9_c2_countE, align 4
  ret i32 %1
}

; Function Attrs: mustprogress nounwind uwtable
define linkonce_odr hidden noundef zeroext i1 @_Z13is_c2_compilei(i32 noundef %0) #1 comdat {
  %2 = alloca i32, align 4
  store i32 %0, ptr %2, align 4
  %3 = load i32, ptr %2, align 4
  %4 = icmp eq i32 %3, 4
  ret i1 %4
}

; Function Attrs: mustprogress nounwind uwtable
define linkonce_odr hidden noundef i32 @_ZN17CompilationPolicy8c1_countEv() #1 comdat align 2 {
  %1 = load i32, ptr @_ZN17CompilationPolicy9_c1_countE, align 4
  ret i32 %1
}

; Function Attrs: mustprogress nounwind uwtable
define linkonce_odr hidden noundef zeroext i1 @_Z13is_c1_compilei(i32 noundef %0) #1 comdat {
  %2 = alloca i32, align 4
  store i32 %0, ptr %2, align 4
  %3 = load i32, ptr %2, align 4
  %4 = icmp sgt i32 %3, 0
  br i1 %4, label %5, label %8

5:                                                ; preds = %1
  %6 = load i32, ptr %2, align 4
  %7 = icmp slt i32 %6, 4
  br label %8

8:                                                ; preds = %5, %1
  %9 = phi i1 [ false, %1 ], [ %7, %5 ]
  ret i1 %9
}

; Function Attrs: mustprogress nounwind uwtable
define hidden noundef i32 @_ZN17CompilationPolicy14compiler_countE9CompLevel(i8 noundef signext %0) #1 align 2 {
  %2 = alloca i32, align 4
  %3 = alloca i8, align 1
  store i8 %0, ptr %3, align 1
  %4 = load i8, ptr %3, align 1
  %5 = sext i8 %4 to i32
  %6 = call noundef zeroext i1 @_Z13is_c1_compilei(i32 noundef %5)
  br i1 %6, label %7, label %9

7:                                                ; preds = %1
  %8 = call noundef i32 @_ZN17CompilationPolicy8c1_countEv()
  store i32 %8, ptr %2, align 4
  br label %17

9:                                                ; preds = %1
  %10 = load i8, ptr %3, align 1
  %11 = sext i8 %10 to i32
  %12 = call noundef zeroext i1 @_Z13is_c2_compilei(i32 noundef %11)
  br i1 %12, label %13, label %15

13:                                               ; preds = %9
  %14 = call noundef i32 @_ZN17CompilationPolicy8c2_countEv()
  store i32 %14, ptr %2, align 4
  br label %17

15:                                               ; preds = %9
  br label %16

16:                                               ; preds = %15
  store i32 0, ptr %2, align 4
  br label %17

17:                                               ; preds = %16, %13, %7
  %18 = load i32, ptr %2, align 4
  ret i32 %18
}