; Function Attrs: mustprogress nofree norecurse nosync nounwind willreturn memory(read, argmem: none, inaccessiblemem: none) uwtable
define hidden noundef i32 @_ZN17CompilationPolicy14compiler_countE9CompLevel(i8 noundef signext %0) local_unnamed_addr #1 align 2 {
  %2 = sext i8 %0 to i32
  %3 = add nsw i32 %2, -1
  %4 = icmp ult i32 %3, 3
  %5 = load i32, ptr @_ZN17CompilationPolicy9_c1_countE, align 4
  %6 = icmp eq i8 %0, 4
  %7 = load i32, ptr @_ZN17CompilationPolicy9_c2_countE, align 4
  %spec.select = select i1 %6, i32 %7, i32 0
  %.0 = select i1 %4, i32 %5, i32 %spec.select
  ret i32 %.0
}